(lp0
(ccollections
Counter
p1
((dp2
S'lessThan500,000'
p3
I1
sS'overlapsWithCodingExcons'
p4
I1
sS'del'
p5
I1
sS'chr1'
p6
I1
stp7
Rp8
S'd'
p9
tp10
a(g1
((dp11
g4
I1
sS'greaterThan1000,000'
p12
I1
sS'del'
p13
I1
sS'chr1'
p14
I1
stp15
Rp16
g9
tp17
a(g1
((dp18
g4
I1
sg12
I1
sS'del'
p19
I1
sS'chr1'
p20
I1
stp21
Rp22
g9
tp23
a(g1
((dp24
g4
I1
sg12
I1
sS'del'
p25
I1
sS'chr1'
p26
I1
stp27
Rp28
g9
tp29
a(g1
((dp30
g3
I1
sS'dup'
p31
I1
sg4
I1
sS'chr1'
p32
I1
stp33
Rp34
S'h'
p35
tp36
a(g1
((dp37
S'lessThan1000,000'
p38
I1
sg4
I1
sS'del'
p39
I1
sS'chr1'
p40
I1
stp41
Rp42
g35
tp43
a(g1
((dp44
S'dup'
p45
I1
sg38
I1
sg4
I1
sS'chr1'
p46
I1
stp47
Rp48
g35
tp49
a(g1
((dp50
S'dup'
p51
I1
sg38
I1
sg4
I1
sS'chr1'
p52
I1
stp53
Rp54
g35
tp55
a.